; Function Attrs: mustprogress nounwind uwtable
define void @_ZN7glslang13TIntermediate23mergeImplicitArraySizesERNS_5TTypeERKS1_(ptr nocapture noundef nonnull readnone align 8 dereferenceable(2024) %0, ptr noundef nonnull align 8 dereferenceable(152) %1, ptr noundef nonnull align 8 dereferenceable(152) %2) local_unnamed_addr #0 align 2 {
  %4 = load ptr, ptr %1, align 8
  %5 = getelementptr inbounds i8, ptr %4, i64 248
  %6 = load ptr, ptr %5, align 8
  %7 = tail call noundef zeroext i1 %6(ptr noundef nonnull align 8 dereferenceable(152) %1) #18
  br i1 %7, label %8, label %45

8:                                                ; preds = %3
  %9 = load ptr, ptr %2, align 8
  %10 = getelementptr inbounds i8, ptr %9, i64 248
  %11 = load ptr, ptr %10, align 8
  %12 = tail call noundef zeroext i1 %11(ptr noundef nonnull align 8 dereferenceable(152) %2) #18
  %13 = load ptr, ptr %2, align 8
  br i1 %12, label %14, label %29

14:                                               ; preds = %8
  %15 = getelementptr inbounds i8, ptr %13, i64 144
  %16 = load ptr, ptr %15, align 8
  %17 = tail call noundef i32 %16(ptr noundef nonnull align 8 dereferenceable(152) %2) #18
  %18 = load ptr, ptr %1, align 8
  %19 = getelementptr inbounds i8, ptr %18, i64 280
  %20 = load ptr, ptr %19, align 8
  tail call void %20(ptr noundef nonnull align 8 dereferenceable(152) %1, i32 noundef %17) #18
  %21 = load ptr, ptr %2, align 8
  %22 = getelementptr inbounds i8, ptr %21, i64 264
  %23 = load ptr, ptr %22, align 8
  %24 = tail call noundef zeroext i1 %23(ptr noundef nonnull align 8 dereferenceable(152) %2) #18
  br i1 %24, label %25, label %45

25:                                               ; preds = %14
  %26 = load ptr, ptr %1, align 8
  %27 = getelementptr inbounds i8, ptr %26, i64 272
  %28 = load ptr, ptr %27, align 8
  tail call void %28(ptr noundef nonnull align 8 dereferenceable(152) %1) #18
  br label %45

29:                                               ; preds = %8
  %30 = getelementptr inbounds i8, ptr %13, i64 240
  %31 = load ptr, ptr %30, align 8
  %32 = tail call noundef zeroext i1 %31(ptr noundef nonnull align 8 dereferenceable(152) %2) #18
  br i1 %32, label %33, label %45

33:                                               ; preds = %29
  %34 = load ptr, ptr %2, align 8
  %35 = getelementptr inbounds i8, ptr %34, i64 120
  %36 = load ptr, ptr %35, align 8
  %37 = tail call noundef i32 %36(ptr noundef nonnull align 8 dereferenceable(152) %2) #18
  %38 = getelementptr inbounds i8, ptr %1, i64 96
  %39 = load ptr, ptr %38, align 8
  %40 = getelementptr inbounds i8, ptr %39, i64 8
  %41 = load ptr, ptr %40, align 8
  %42 = getelementptr inbounds i8, ptr %41, i64 8
  %43 = load ptr, ptr %42, align 8
  store i32 %37, ptr %43, align 8
  %44 = getelementptr inbounds i8, ptr %39, i64 20
  store i8 0, ptr %44, align 4
  br label %45

45:                                               ; preds = %25, %14, %33, %29, %3
  %46 = load ptr, ptr %1, align 8
  %47 = getelementptr inbounds i8, ptr %46, i64 296
  %48 = load ptr, ptr %47, align 8
  %49 = tail call noundef zeroext i1 %48(ptr noundef nonnull align 8 dereferenceable(152) %1) #18
  br i1 %49, label %50, label %.loopexit

50:                                               ; preds = %45
  %51 = load ptr, ptr %2, align 8
  %52 = getelementptr inbounds i8, ptr %51, i64 296
  %53 = load ptr, ptr %52, align 8
  %54 = tail call noundef zeroext i1 %53(ptr noundef nonnull align 8 dereferenceable(152) %2) #18
  br i1 %54, label %55, label %.loopexit

55:                                               ; preds = %50
  %56 = getelementptr inbounds i8, ptr %1, i64 104
  %57 = load ptr, ptr %56, align 8
  %58 = getelementptr inbounds i8, ptr %57, i64 8
  %59 = getelementptr inbounds i8, ptr %57, i64 16
  %60 = load ptr, ptr %59, align 8
  %61 = load ptr, ptr %58, align 8
  %62 = ptrtoint ptr %60 to i64
  %63 = ptrtoint ptr %61 to i64
  %64 = sub i64 %62, %63
  %65 = getelementptr inbounds i8, ptr %2, i64 104
  %66 = load ptr, ptr %65, align 8
  %67 = getelementptr inbounds i8, ptr %66, i64 8
  %68 = getelementptr inbounds i8, ptr %66, i64 16
  %69 = load ptr, ptr %68, align 8
  %70 = load ptr, ptr %67, align 8
  %71 = ptrtoint ptr %69 to i64
  %72 = ptrtoint ptr %70 to i64
  %73 = sub i64 %71, %72
  %.not = icmp eq i64 %64, %73
  %74 = lshr exact i64 %64, 5
  %75 = trunc i64 %74 to i32
  %76 = icmp sgt i32 %75, 0
  %or.cond = select i1 %.not, i1 %76, i1 false
  br i1 %or.cond, label %.lr.ph, label %.loopexit

.lr.ph:                                           ; preds = %55, %.lr.ph
  %indvars.iv = phi i64 [ %indvars.iv.next, %.lr.ph ], [ 0, %55 ]
  %77 = phi ptr [ %89, %.lr.ph ], [ %61, %55 ]
  %78 = getelementptr inbounds %"struct.glslang::TTypeLoc", ptr %77, i64 %indvars.iv
  %79 = load ptr, ptr %78, align 8
  %80 = load ptr, ptr %65, align 8
  %81 = getelementptr inbounds i8, ptr %80, i64 8
  %82 = load ptr, ptr %81, align 8
  %83 = getelementptr inbounds %"struct.glslang::TTypeLoc", ptr %82, i64 %indvars.iv
  %84 = load ptr, ptr %83, align 8
  tail call void @_ZN7glslang13TIntermediate23mergeImplicitArraySizesERNS_5TTypeERKS1_(ptr noundef nonnull align 8 dereferenceable(2024) %0, ptr noundef nonnull align 8 dereferenceable(152) %79, ptr noundef nonnull align 8 dereferenceable(152) %84)
  %indvars.iv.next = add nuw nsw i64 %indvars.iv, 1
  %85 = load ptr, ptr %56, align 8
  %86 = getelementptr inbounds i8, ptr %85, i64 8
  %87 = getelementptr inbounds i8, ptr %85, i64 16
  %88 = load ptr, ptr %87, align 8
  %89 = load ptr, ptr %86, align 8
  %90 = ptrtoint ptr %88 to i64
  %91 = ptrtoint ptr %89 to i64
  %92 = sub i64 %90, %91
  %sext = shl i64 %92, 27
  %93 = ashr i64 %sext, 32
  %94 = icmp slt i64 %indvars.iv.next, %93
  br i1 %94, label %.lr.ph, label %.loopexit, !llvm.loop !91

.loopexit:                                        ; preds = %.lr.ph, %45, %50, %55
  ret void
}